; ModuleID = '56/1991.c'
source_filename = "56/1991.c"
target datalayout = "e-m:e-p270:32:32-p271:32:32-p272:64:64-i64:64-f80:128-n8:16:32:64-S128"
target triple = "x86_64-pc-linux-gnu"

@.str = private unnamed_addr constant [3 x i8] c"%d\00", align 1

; Function Attrs: noinline nounwind uwtable
define dso_local void @main() #0 {
  %1 = alloca i32, align 4
  %2 = alloca [6 x i32], align 16
  %3 = alloca i32, align 4
  %4 = alloca i32, align 4
  %5 = alloca i32, align 4
  %6 = alloca i32, align 4
  %7 = alloca i32, align 4
  %8 = call i32 (i8*, ...) @__isoc99_scanf(i8* getelementptr inbounds ([3 x i8], [3 x i8]* @.str, i64 0, i64 0), i32* %1)
  %9 = load i32, i32* %1, align 4
  %10 = sdiv i32 %9, 10000
  %11 = getelementptr inbounds [6 x i32], [6 x i32]* %2, i64 0, i64 1
  store i32 %10, i32* %11, align 4
  %12 = load i32, i32* %1, align 4
  %13 = getelementptr inbounds [6 x i32], [6 x i32]* %2, i64 0, i64 1
  %14 = load i32, i32* %13, align 4
  %15 = mul nsw i32 %14, 10000
  %16 = sub nsw i32 %12, %15
  %17 = sdiv i32 %16, 1000
  %18 = getelementptr inbounds [6 x i32], [6 x i32]* %2, i64 0, i64 2
  store i32 %17, i32* %18, align 8
  %19 = load i32, i32* %1, align 4
  %20 = getelementptr inbounds [6 x i32], [6 x i32]* %2, i64 0, i64 1
  %21 = load i32, i32* %20, align 4
  %22 = mul nsw i32 %21, 10000
  %23 = sub nsw i32 %19, %22
  %24 = getelementptr inbounds [6 x i32], [6 x i32]* %2, i64 0, i64 2
  %25 = load i32, i32* %24, align 8
  %26 = mul nsw i32 %25, 1000
  %27 = sub nsw i32 %23, %26
  %28 = sdiv i32 %27, 100
  %29 = getelementptr inbounds [6 x i32], [6 x i32]* %2, i64 0, i64 3
  store i32 %28, i32* %29, align 4
  %30 = load i32, i32* %1, align 4
  %31 = getelementptr inbounds [6 x i32], [6 x i32]* %2, i64 0, i64 1
  %32 = load i32, i32* %31, align 4
  %33 = mul nsw i32 %32, 10000
  %34 = sub nsw i32 %30, %33
  %35 = getelementptr inbounds [6 x i32], [6 x i32]* %2, i64 0, i64 2
  %36 = load i32, i32* %35, align 8
  %37 = mul nsw i32 %36, 1000
  %38 = sub nsw i32 %34, %37
  %39 = getelementptr inbounds [6 x i32], [6 x i32]* %2, i64 0, i64 3
  %40 = load i32, i32* %39, align 4
  %41 = mul nsw i32 %40, 100
  %42 = sub nsw i32 %38, %41
  %43 = sdiv i32 %42, 10
  %44 = getelementptr inbounds [6 x i32], [6 x i32]* %2, i64 0, i64 4
  store i32 %43, i32* %44, align 16
  %45 = load i32, i32* %1, align 4
  %46 = getelementptr inbounds [6 x i32], [6 x i32]* %2, i64 0, i64 1
  %47 = load i32, i32* %46, align 4
  %48 = mul nsw i32 %47, 10000
  %49 = sub nsw i32 %45, %48
  %50 = getelementptr inbounds [6 x i32], [6 x i32]* %2, i64 0, i64 2
  %51 = load i32, i32* %50, align 8
  %52 = mul nsw i32 %51, 1000
  %53 = sub nsw i32 %49, %52
  %54 = getelementptr inbounds [6 x i32], [6 x i32]* %2, i64 0, i64 3
  %55 = load i32, i32* %54, align 4
  %56 = mul nsw i32 %55, 100
  %57 = sub nsw i32 %53, %56
  %58 = getelementptr inbounds [6 x i32], [6 x i32]* %2, i64 0, i64 4
  %59 = load i32, i32* %58, align 16
  %60 = mul nsw i32 %59, 10
  %61 = sub nsw i32 %57, %60
  %62 = getelementptr inbounds [6 x i32], [6 x i32]* %2, i64 0, i64 5
  store i32 %61, i32* %62, align 4
  store i32 1, i32* %3, align 4
  br label %63

63:                                               ; preds = %76, %0
  %64 = load i32, i32* %3, align 4
  %65 = icmp sle i32 %64, 5
  br i1 %65, label %66, label %79

66:                                               ; preds = %63
  %67 = load i32, i32* %3, align 4
  %68 = sext i32 %67 to i64
  %69 = getelementptr inbounds [6 x i32], [6 x i32]* %2, i64 0, i64 %68
  %70 = load i32, i32* %69, align 4
  %71 = icmp ne i32 %70, 0
  br i1 %71, label %72, label %75

72:                                               ; preds = %66
  %73 = load i32, i32* %3, align 4
  store i32 %73, i32* %6, align 4
  %74 = load i32, i32* %6, align 4
  store i32 %74, i32* %7, align 4
  br label %79

75:                                               ; preds = %66
  br label %76

76:                                               ; preds = %75
  %77 = load i32, i32* %3, align 4
  %78 = add nsw i32 %77, 1
  store i32 %78, i32* %3, align 4
  br label %63

79:                                               ; preds = %72, %63
  br label %80

80:                                               ; preds = %112, %79
  %81 = load i32, i32* %6, align 4
  %82 = icmp sle i32 %81, 5
  br i1 %82, label %83, label %115

83:                                               ; preds = %80
  store i32 5, i32* %3, align 4
  %84 = load i32, i32* %3, align 4
  %85 = sub nsw i32 %84, 1
  store i32 %85, i32* %4, align 4
  br label %86

86:                                               ; preds = %106, %83
  %87 = load i32, i32* %4, align 4
  %88 = load i32, i32* %6, align 4
  %89 = icmp sge i32 %87, %88
  br i1 %89, label %90, label %111

90:                                               ; preds = %86
  %91 = load i32, i32* %3, align 4
  %92 = sext i32 %91 to i64
  %93 = getelementptr inbounds [6 x i32], [6 x i32]* %2, i64 0, i64 %92
  %94 = load i32, i32* %93, align 4
  store i32 %94, i32* %5, align 4
  %95 = load i32, i32* %4, align 4
  %96 = sext i32 %95 to i64
  %97 = getelementptr inbounds [6 x i32], [6 x i32]* %2, i64 0, i64 %96
  %98 = load i32, i32* %97, align 4
  %99 = load i32, i32* %3, align 4
  %100 = sext i32 %99 to i64
  %101 = getelementptr inbounds [6 x i32], [6 x i32]* %2, i64 0, i64 %100
  store i32 %98, i32* %101, align 4
  %102 = load i32, i32* %5, align 4
  %103 = load i32, i32* %4, align 4
  %104 = sext i32 %103 to i64
  %105 = getelementptr inbounds [6 x i32], [6 x i32]* %2, i64 0, i64 %104
  store i32 %102, i32* %105, align 4
  br label %106

106:                                              ; preds = %90
  %107 = load i32, i32* %3, align 4
  %108 = add nsw i32 %107, -1
  store i32 %108, i32* %3, align 4
  %109 = load i32, i32* %4, align 4
  %110 = add nsw i32 %109, -1
  store i32 %110, i32* %4, align 4
  br label %86

111:                                              ; preds = %86
  br label %112

112:                                              ; preds = %111
  %113 = load i32, i32* %6, align 4
  %114 = add nsw i32 %113, 1
  store i32 %114, i32* %6, align 4
  br label %80

115:                                              ; preds = %80
  %116 = load i32, i32* %7, align 4
  store i32 %116, i32* %3, align 4
  br label %117

117:                                              ; preds = %126, %115
  %118 = load i32, i32* %3, align 4
  %119 = icmp sle i32 %118, 5
  br i1 %119, label %120, label %129

120:                                              ; preds = %117
  %121 = load i32, i32* %3, align 4
  %122 = sext i32 %121 to i64
  %123 = getelementptr inbounds [6 x i32], [6 x i32]* %2, i64 0, i64 %122
  %124 = load i32, i32* %123, align 4
  %125 = call i32 (i8*, ...) @printf(i8* getelementptr inbounds ([3 x i8], [3 x i8]* @.str, i64 0, i64 0), i32 %124)
  br label %126

126:                                              ; preds = %120
  %127 = load i32, i32* %3, align 4
  %128 = add nsw i32 %127, 1
  store i32 %128, i32* %3, align 4
  br label %117

129:                                              ; preds = %117
  ret void
}

declare dso_local i32 @__isoc99_scanf(i8*, ...) #1

declare dso_local i32 @printf(i8*, ...) #1


!llvm.module.flags = !{!0}
!llvm.ident = !{!1}

!0 = !{i32 1, !"wchar_size", i32 4}
!1 = !{!"clang version 10.0.0-4ubuntu1 "}
